; Function Attrs: mustprogress nofree norecurse nosync nounwind willreturn memory(argmem: readwrite) uwtable
define dso_local void @_ZN5clang7CodeGen12EHScopeStack10deallocateEm(ptr nocapture noundef nonnull align 8 dereferenceable(320) %0, i64 noundef %1) local_unnamed_addr #5 align 2 {
  %3 = icmp ne i64 %1, 0
  %.neg = sext i1 %3 to i64
  %4 = add i64 %1, %.neg
  %5 = select i1 %3, i64 8, i64 0
  %6 = add i64 %4, %5
  %7 = and i64 %6, -8
  %8 = getelementptr inbounds nuw i8, ptr %0, i64 16
  %9 = load ptr, ptr %8, align 8
  %10 = getelementptr inbounds i8, ptr %9, i64 %7
  store ptr %10, ptr %8, align 8
  ret void
}